target datalayout = "e-m:e-p270:32:32-p271:32:32-p272:64:64-i64:64-i128:128-f80:128-n8:16:32:64-S128"
target triple = "x86_64-pc-linux-gnu"

%struct.ole2_list = type { i32, ptr }
%struct.ole2_list_node = type { i32, ptr }

@.str.1 = private unnamed_addr constant [54 x i8] c"OLE2: work list is empty and ole2_list_pop() called!\0A\00", align 1

; Function Attrs: nounwind uwtable
define i32 @ole2_list_pop(ptr noundef %0) #0 {
  %2 = alloca i32, align 4
  %3 = alloca ptr, align 8
  %4 = alloca i32, align 4
  %5 = alloca ptr, align 8
  store ptr %0, ptr %3, align 8
  %6 = load ptr, ptr %3, align 8
  %7 = call i32 @ole2_list_is_empty(ptr noundef %6)
  %8 = icmp ne i32 %7, 0
  br i1 %8, label %9, label %10

9:                                                ; preds = %1
  call void (ptr, ...) @cli_dbgmsg(ptr noundef @.str.1)
  store i32 -1, ptr %2, align 4
  br label %32

10:                                               ; preds = %1
  %11 = load ptr, ptr %3, align 8
  %12 = getelementptr inbounds %struct.ole2_list, ptr %11, i32 0, i32 1
  %13 = load ptr, ptr %12, align 8
  %14 = getelementptr inbounds %struct.ole2_list_node, ptr %13, i32 0, i32 0
  %15 = load i32, ptr %14, align 8
  store i32 %15, ptr %4, align 4
  %16 = load ptr, ptr %3, align 8
  %17 = getelementptr inbounds %struct.ole2_list, ptr %16, i32 0, i32 1
  %18 = load ptr, ptr %17, align 8
  %19 = getelementptr inbounds %struct.ole2_list_node, ptr %18, i32 0, i32 1
  %20 = load ptr, ptr %19, align 8
  store ptr %20, ptr %5, align 8
  %21 = load ptr, ptr %3, align 8
  %22 = getelementptr inbounds %struct.ole2_list, ptr %21, i32 0, i32 1
  %23 = load ptr, ptr %22, align 8
  call void @free(ptr noundef %23) #10
  %24 = load ptr, ptr %5, align 8
  %25 = load ptr, ptr %3, align 8
  %26 = getelementptr inbounds %struct.ole2_list, ptr %25, i32 0, i32 1
  store ptr %24, ptr %26, align 8
  %27 = load ptr, ptr %3, align 8
  %28 = getelementptr inbounds %struct.ole2_list, ptr %27, i32 0, i32 0
  %29 = load i32, ptr %28, align 8
  %30 = add i32 %29, -1
  store i32 %30, ptr %28, align 8
  %31 = load i32, ptr %4, align 4
  store i32 %31, ptr %2, align 4
  br label %32

32:                                               ; preds = %10, %9
  %33 = load i32, ptr %2, align 4
  ret i32 %33
}

; Function Attrs: nounwind uwtable
define i32 @ole2_list_is_empty(ptr noundef %0) #0 {
  %2 = alloca ptr, align 8
  store ptr %0, ptr %2, align 8
  %3 = load ptr, ptr %2, align 8
  %4 = getelementptr inbounds %struct.ole2_list, ptr %3, i32 0, i32 1
  %5 = load ptr, ptr %4, align 8
  %6 = icmp eq ptr %5, null
  %7 = zext i1 %6 to i32
  ret i32 %7
}

; Function Attrs: nounwind uwtable
define i32 @ole2_list_delete(ptr noundef %0) #0 {
  %2 = alloca ptr, align 8
  store ptr %0, ptr %2, align 8
  br label %3

3:                                                ; preds = %8, %1
  %4 = load ptr, ptr %2, align 8
  %5 = call i32 @ole2_list_is_empty(ptr noundef %4)
  %6 = icmp ne i32 %5, 0
  %7 = xor i1 %6, true
  br i1 %7, label %8, label %11

8:                                                ; preds = %3
  %9 = load ptr, ptr %2, align 8
  %10 = call i32 @ole2_list_pop(ptr noundef %9)
  br label %3

11:                                               ; preds = %3
  ret i32 0
}