; Function Attrs: nounwind uwtable
define noundef i32 @ole2_list_delete(ptr nocapture noundef %0) local_unnamed_addr #2 {
  %2 = getelementptr inbounds i8, ptr %0, i64 8
  %3 = load ptr, ptr %2, align 8
  %.not2 = icmp eq ptr %3, null
  br i1 %.not2, label %._crit_edge, label %ole2_list_pop.exit

ole2_list_pop.exit:                               ; preds = %1, %ole2_list_pop.exit
  %4 = phi ptr [ %6, %ole2_list_pop.exit ], [ %3, %1 ]
  %5 = getelementptr inbounds i8, ptr %4, i64 8
  %6 = load ptr, ptr %5, align 8
  tail call void @free(ptr noundef nonnull %4) #21
  store ptr %6, ptr %2, align 8
  %7 = load i32, ptr %0, align 8
  %8 = add i32 %7, -1
  store i32 %8, ptr %0, align 8
  %.not = icmp eq ptr %6, null
  br i1 %.not, label %._crit_edge, label %ole2_list_pop.exit

._crit_edge:                                      ; preds = %ole2_list_pop.exit, %1
  ret i32 0
}